target datalayout = "e-m:e-p270:32:32-p271:32:32-p272:64:64-i64:64-i128:128-f80:128-n8:16:32:64-S128"
target triple = "x86_64-pc-linux-gnu"

%struct.evthread_lock_callbacks = type { i32, i32, ptr, ptr, ptr, ptr }
%struct.evbuffer_chain = type { ptr, i64, i64, i64, i32, i32, ptr }
%struct.evbuffer_chain_reference = type { ptr, ptr }
%struct.evbuffer = type { ptr, ptr, ptr, i64, i64, i64, i64, ptr, i8, i32, ptr, i32, %struct.event_callback, %struct.evbuffer_cb_queue, ptr }
%struct.event_callback = type { %struct.anon, i16, i8, i8, %union.anon, ptr }
%struct.anon = type { ptr, ptr }
%union.anon = type { ptr }
%struct.evbuffer_cb_queue = type { ptr }

@evthread_lock_fns_ = external global %struct.evthread_lock_callbacks, align 8
@evthread_lock_debugging_enabled_ = external global i32, align 4

; Function Attrs: nounwind uwtable
define internal void @evbuffer_free_all_chains(ptr noundef %0) #0 {
  %2 = alloca ptr, align 8
  %3 = alloca ptr, align 8
  store ptr %0, ptr %2, align 8
  call void @llvm.lifetime.start.p0(i64 8, ptr %3) #10
  br label %4

4:                                                ; preds = %12, %1
  %5 = load ptr, ptr %2, align 8
  %6 = icmp ne ptr %5, null
  br i1 %6, label %7, label %14

7:                                                ; preds = %4
  %8 = load ptr, ptr %2, align 8
  %9 = getelementptr inbounds nuw %struct.evbuffer_chain, ptr %8, i32 0, i32 0
  %10 = load ptr, ptr %9, align 8
  store ptr %10, ptr %3, align 8
  %11 = load ptr, ptr %2, align 8
  call void @evbuffer_chain_free(ptr noundef %11)
  br label %12

12:                                               ; preds = %7
  %13 = load ptr, ptr %3, align 8
  store ptr %13, ptr %2, align 8
  br label %4, !llvm.loop !15

14:                                               ; preds = %4
  call void @llvm.lifetime.end.p0(i64 8, ptr %3) #10
  ret void
}

; Function Attrs: nounwind uwtable
define internal ptr @evbuffer_free_trailing_empty_chains(ptr noundef %0) #0 {
  %2 = alloca ptr, align 8
  %3 = alloca ptr, align 8
  store ptr %0, ptr %2, align 8
  call void @llvm.lifetime.start.p0(i64 8, ptr %3) #10
  %4 = load ptr, ptr %2, align 8
  %5 = getelementptr inbounds nuw %struct.evbuffer, ptr %4, i32 0, i32 2
  %6 = load ptr, ptr %5, align 8
  store ptr %6, ptr %3, align 8
  br label %7

7:                                                ; preds = %28, %1
  %8 = load ptr, ptr %3, align 8
  %9 = load ptr, ptr %8, align 8
  %10 = icmp ne ptr %9, null
  br i1 %10, label %11, label %26

11:                                               ; preds = %7
  %12 = load ptr, ptr %3, align 8
  %13 = load ptr, ptr %12, align 8
  %14 = getelementptr inbounds nuw %struct.evbuffer_chain, ptr %13, i32 0, i32 3
  %15 = load i64, ptr %14, align 8
  %16 = icmp ne i64 %15, 0
  br i1 %16, label %24, label %17

17:                                               ; preds = %11
  %18 = load ptr, ptr %3, align 8
  %19 = load ptr, ptr %18, align 8
  %20 = getelementptr inbounds nuw %struct.evbuffer_chain, ptr %19, i32 0, i32 4
  %21 = load i32, ptr %20, align 8
  %22 = and i32 %21, 48
  %23 = icmp ne i32 %22, 0
  br label %24

24:                                               ; preds = %17, %11
  %25 = phi i1 [ true, %11 ], [ %23, %17 ]
  br label %26

26:                                               ; preds = %24, %7
  %27 = phi i1 [ false, %7 ], [ %25, %24 ]
  br i1 %27, label %28, label %32

28:                                               ; preds = %26
  %29 = load ptr, ptr %3, align 8
  %30 = load ptr, ptr %29, align 8
  %31 = getelementptr inbounds nuw %struct.evbuffer_chain, ptr %30, i32 0, i32 0
  store ptr %31, ptr %3, align 8
  br label %7, !llvm.loop !22

32:                                               ; preds = %26
  %33 = load ptr, ptr %3, align 8
  %34 = load ptr, ptr %33, align 8
  %35 = icmp ne ptr %34, null
  br i1 %35, label %36, label %43

36:                                               ; preds = %32
  br label %37

37:                                               ; preds = %36
  br label %38

38:                                               ; preds = %37
  br label %39

39:                                               ; preds = %38
  %40 = load ptr, ptr %3, align 8
  %41 = load ptr, ptr %40, align 8
  call void @evbuffer_free_all_chains(ptr noundef %41)
  %42 = load ptr, ptr %3, align 8
  store ptr null, ptr %42, align 8
  br label %43

43:                                               ; preds = %39, %32
  %44 = load ptr, ptr %3, align 8
  call void @llvm.lifetime.end.p0(i64 8, ptr %3) #10
  ret ptr %44
}

; Function Attrs: nounwind uwtable
define internal void @evbuffer_chain_insert(ptr noundef %0, ptr noundef %1) #0 {
  %3 = alloca ptr, align 8
  %4 = alloca ptr, align 8
  %5 = alloca ptr, align 8
  store ptr %0, ptr %3, align 8
  store ptr %1, ptr %4, align 8
  br label %6

6:                                                ; preds = %2
  %7 = load ptr, ptr %3, align 8
  %8 = getelementptr inbounds nuw %struct.evbuffer, ptr %7, i32 0, i32 7
  %9 = load ptr, ptr %8, align 8
  %10 = icmp ne ptr %9, null
  br i1 %10, label %11, label %17

11:                                               ; preds = %6
  %12 = load i32, ptr @evthread_lock_debugging_enabled_, align 4
  %13 = icmp ne i32 %12, 0
  br i1 %13, label %14, label %17

14:                                               ; preds = %11
  br label %15

15:                                               ; preds = %14
  br label %16

16:                                               ; preds = %15
  br label %17

17:                                               ; preds = %16, %11, %6
  br label %18

18:                                               ; preds = %17
  %19 = load ptr, ptr %3, align 8
  %20 = getelementptr inbounds nuw %struct.evbuffer, ptr %19, i32 0, i32 2
  %21 = load ptr, ptr %20, align 8
  %22 = load ptr, ptr %21, align 8
  %23 = icmp eq ptr %22, null
  br i1 %23, label %24, label %34

24:                                               ; preds = %18
  br label %25

25:                                               ; preds = %24
  br label %26

26:                                               ; preds = %25
  br label %27

27:                                               ; preds = %26
  br label %28

28:                                               ; preds = %27
  %29 = load ptr, ptr %4, align 8
  %30 = load ptr, ptr %3, align 8
  %31 = getelementptr inbounds nuw %struct.evbuffer, ptr %30, i32 0, i32 1
  store ptr %29, ptr %31, align 8
  %32 = load ptr, ptr %3, align 8
  %33 = getelementptr inbounds nuw %struct.evbuffer, ptr %32, i32 0, i32 0
  store ptr %29, ptr %33, align 8
  br label %51

34:                                               ; preds = %18
  call void @llvm.lifetime.start.p0(i64 8, ptr %5) #10
  %35 = load ptr, ptr %3, align 8
  %36 = call ptr @evbuffer_free_trailing_empty_chains(ptr noundef %35)
  store ptr %36, ptr %5, align 8
  %37 = load ptr, ptr %4, align 8
  %38 = load ptr, ptr %5, align 8
  store ptr %37, ptr %38, align 8
  %39 = load ptr, ptr %4, align 8
  %40 = getelementptr inbounds nuw %struct.evbuffer_chain, ptr %39, i32 0, i32 3
  %41 = load i64, ptr %40, align 8
  %42 = icmp ne i64 %41, 0
  br i1 %42, label %43, label %47

43:                                               ; preds = %34
  %44 = load ptr, ptr %5, align 8
  %45 = load ptr, ptr %3, align 8
  %46 = getelementptr inbounds nuw %struct.evbuffer, ptr %45, i32 0, i32 2
  store ptr %44, ptr %46, align 8
  br label %47

47:                                               ; preds = %43, %34
  %48 = load ptr, ptr %4, align 8
  %49 = load ptr, ptr %3, align 8
  %50 = getelementptr inbounds nuw %struct.evbuffer, ptr %49, i32 0, i32 1
  store ptr %48, ptr %50, align 8
  call void @llvm.lifetime.end.p0(i64 8, ptr %5) #10
  br label %51

51:                                               ; preds = %47, %28
  %52 = load ptr, ptr %4, align 8
  %53 = getelementptr inbounds nuw %struct.evbuffer_chain, ptr %52, i32 0, i32 3
  %54 = load i64, ptr %53, align 8
  %55 = load ptr, ptr %3, align 8
  %56 = getelementptr inbounds nuw %struct.evbuffer, ptr %55, i32 0, i32 3
  %57 = load i64, ptr %56, align 8
  %58 = add i64 %57, %54
  store i64 %58, ptr %56, align 8
  ret void
}

; Function Attrs: nounwind uwtable
define internal ptr @evbuffer_chain_new(i64 noundef %0) #0 {
  %2 = alloca ptr, align 8
  %3 = alloca i64, align 8
  %4 = alloca ptr, align 8
  %5 = alloca i64, align 8
  %6 = alloca i32, align 4
  store i64 %0, ptr %3, align 8
  call void @llvm.lifetime.start.p0(i64 8, ptr %4) #10
  call void @llvm.lifetime.start.p0(i64 8, ptr %5) #10
  %7 = load i64, ptr %3, align 8
  %8 = icmp ugt i64 %7, 9223372036854775759
  br i1 %8, label %9, label %10

9:                                                ; preds = %1
  store ptr null, ptr %2, align 8
  store i32 1, ptr %6, align 4
  br label %30

10:                                               ; preds = %1
  %11 = load i64, ptr %3, align 8
  %12 = add i64 %11, 48
  store i64 %12, ptr %5, align 8
  %13 = load i64, ptr %5, align 8
  %14 = call ptr @event_mm_malloc_(i64 noundef %13)
  store ptr %14, ptr %4, align 8
  %15 = icmp eq ptr %14, null
  br i1 %15, label %16, label %17

16:                                               ; preds = %10
  store ptr null, ptr %2, align 8
  store i32 1, ptr %6, align 4
  br label %30

17:                                               ; preds = %10
  %18 = load ptr, ptr %4, align 8
  call void @llvm.memset.p0.i64(ptr align 8 %18, i8 0, i64 48, i1 false)
  %19 = load i64, ptr %5, align 8
  %20 = sub i64 %19, 48
  %21 = load ptr, ptr %4, align 8
  %22 = getelementptr inbounds nuw %struct.evbuffer_chain, ptr %21, i32 0, i32 1
  store i64 %20, ptr %22, align 8
  %23 = load ptr, ptr %4, align 8
  %24 = getelementptr inbounds %struct.evbuffer_chain, ptr %23, i64 1
  %25 = load ptr, ptr %4, align 8
  %26 = getelementptr inbounds nuw %struct.evbuffer_chain, ptr %25, i32 0, i32 6
  store ptr %24, ptr %26, align 8
  %27 = load ptr, ptr %4, align 8
  %28 = getelementptr inbounds nuw %struct.evbuffer_chain, ptr %27, i32 0, i32 5
  store i32 1, ptr %28, align 4
  %29 = load ptr, ptr %4, align 8
  store ptr %29, ptr %2, align 8
  store i32 1, ptr %6, align 4
  br label %30

30:                                               ; preds = %17, %16, %9
  call void @llvm.lifetime.end.p0(i64 8, ptr %5) #10
  call void @llvm.lifetime.end.p0(i64 8, ptr %4) #10
  %31 = load ptr, ptr %2, align 8
  ret ptr %31
}

; Function Attrs: nounwind uwtable
define i32 @evbuffer_add_reference_with_offset(ptr noundef %0, ptr noundef %1, i64 noundef %2, i64 noundef %3, ptr noundef %4, ptr noundef %5) #0 {
  %7 = alloca i32, align 4
  %8 = alloca ptr, align 8
  %9 = alloca ptr, align 8
  %10 = alloca i64, align 8
  %11 = alloca i64, align 8
  %12 = alloca ptr, align 8
  %13 = alloca ptr, align 8
  %14 = alloca ptr, align 8
  %15 = alloca ptr, align 8
  %16 = alloca i32, align 4
  %17 = alloca i32, align 4
  store ptr %0, ptr %8, align 8
  store ptr %1, ptr %9, align 8
  store i64 %2, ptr %10, align 8
  store i64 %3, ptr %11, align 8
  store ptr %4, ptr %12, align 8
  store ptr %5, ptr %13, align 8
  call void @llvm.lifetime.start.p0(i64 8, ptr %14) #10
  call void @llvm.lifetime.start.p0(i64 8, ptr %15) #10
  call void @llvm.lifetime.start.p0(i64 4, ptr %16) #10
  store i32 -1, ptr %16, align 4
  %18 = call ptr @evbuffer_chain_new(i64 noundef 16)
  store ptr %18, ptr %14, align 8
  %19 = load ptr, ptr %14, align 8
  %20 = icmp ne ptr %19, null
  br i1 %20, label %22, label %21

21:                                               ; preds = %6
  store i32 -1, ptr %7, align 4
  store i32 1, ptr %17, align 4
  br label %103

22:                                               ; preds = %6
  %23 = load ptr, ptr %14, align 8
  %24 = getelementptr inbounds nuw %struct.evbuffer_chain, ptr %23, i32 0, i32 4
  %25 = load i32, ptr %24, align 8
  %26 = or i32 %25, 12
  store i32 %26, ptr %24, align 8
  %27 = load ptr, ptr %9, align 8
  %28 = load ptr, ptr %14, align 8
  %29 = getelementptr inbounds nuw %struct.evbuffer_chain, ptr %28, i32 0, i32 6
  store ptr %27, ptr %29, align 8
  %30 = load i64, ptr %10, align 8
  %31 = load ptr, ptr %14, align 8
  %32 = getelementptr inbounds nuw %struct.evbuffer_chain, ptr %31, i32 0, i32 2
  store i64 %30, ptr %32, align 8
  %33 = load i64, ptr %10, align 8
  %34 = load i64, ptr %11, align 8
  %35 = add i64 %33, %34
  %36 = load ptr, ptr %14, align 8
  %37 = getelementptr inbounds nuw %struct.evbuffer_chain, ptr %36, i32 0, i32 1
  store i64 %35, ptr %37, align 8
  %38 = load i64, ptr %11, align 8
  %39 = load ptr, ptr %14, align 8
  %40 = getelementptr inbounds nuw %struct.evbuffer_chain, ptr %39, i32 0, i32 3
  store i64 %38, ptr %40, align 8
  %41 = load ptr, ptr %14, align 8
  %42 = getelementptr inbounds %struct.evbuffer_chain, ptr %41, i64 1
  store ptr %42, ptr %15, align 8
  %43 = load ptr, ptr %12, align 8
  %44 = load ptr, ptr %15, align 8
  %45 = getelementptr inbounds nuw %struct.evbuffer_chain_reference, ptr %44, i32 0, i32 0
  store ptr %43, ptr %45, align 8
  %46 = load ptr, ptr %13, align 8
  %47 = load ptr, ptr %15, align 8
  %48 = getelementptr inbounds nuw %struct.evbuffer_chain_reference, ptr %47, i32 0, i32 1
  store ptr %46, ptr %48, align 8
  br label %49

49:                                               ; preds = %22
  br label %50

50:                                               ; preds = %49
  %51 = load ptr, ptr %8, align 8
  %52 = getelementptr inbounds nuw %struct.evbuffer, ptr %51, i32 0, i32 7
  %53 = load ptr, ptr %52, align 8
  %54 = icmp ne ptr %53, null
  br i1 %54, label %55, label %61

55:                                               ; preds = %50
  %56 = load ptr, ptr getelementptr inbounds nuw (%struct.evthread_lock_callbacks, ptr @evthread_lock_fns_, i32 0, i32 4), align 8
  %57 = load ptr, ptr %8, align 8
  %58 = getelementptr inbounds nuw %struct.evbuffer, ptr %57, i32 0, i32 7
  %59 = load ptr, ptr %58, align 8
  %60 = call i32 %56(i32 noundef 0, ptr noundef %59)
  br label %61

61:                                               ; preds = %55, %50
  br label %62

62:                                               ; preds = %61
  br label %63

63:                                               ; preds = %62
  br label %64

64:                                               ; preds = %63
  br label %65

65:                                               ; preds = %64
  %66 = load ptr, ptr %8, align 8
  %67 = getelementptr inbounds nuw %struct.evbuffer, ptr %66, i32 0, i32 8
  %68 = load i8, ptr %67, align 8
  %69 = lshr i8 %68, 2
  %70 = and i8 %69, 1
  %71 = zext i8 %70 to i32
  %72 = icmp ne i32 %71, 0
  br i1 %72, label %73, label %75

73:                                               ; preds = %65
  %74 = load ptr, ptr %14, align 8
  call void @event_mm_free_(ptr noundef %74)
  br label %84

75:                                               ; preds = %65
  %76 = load ptr, ptr %8, align 8
  %77 = load ptr, ptr %14, align 8
  call void @evbuffer_chain_insert(ptr noundef %76, ptr noundef %77)
  %78 = load i64, ptr %11, align 8
  %79 = load ptr, ptr %8, align 8
  %80 = getelementptr inbounds nuw %struct.evbuffer, ptr %79, i32 0, i32 5
  %81 = load i64, ptr %80, align 8
  %82 = add i64 %81, %78
  store i64 %82, ptr %80, align 8
  %83 = load ptr, ptr %8, align 8
  call void @evbuffer_invoke_callbacks_(ptr noundef %83)
  store i32 0, ptr %16, align 4
  br label %84

84:                                               ; preds = %75, %73
  br label %85

85:                                               ; preds = %84
  br label %86

86:                                               ; preds = %85
  %87 = load ptr, ptr %8, align 8
  %88 = getelementptr inbounds nuw %struct.evbuffer, ptr %87, i32 0, i32 7
  %89 = load ptr, ptr %88, align 8
  %90 = icmp ne ptr %89, null
  br i1 %90, label %91, label %97

91:                                               ; preds = %86
  %92 = load ptr, ptr getelementptr inbounds nuw (%struct.evthread_lock_callbacks, ptr @evthread_lock_fns_, i32 0, i32 5), align 8
  %93 = load ptr, ptr %8, align 8
  %94 = getelementptr inbounds nuw %struct.evbuffer, ptr %93, i32 0, i32 7
  %95 = load ptr, ptr %94, align 8
  %96 = call i32 %92(i32 noundef 0, ptr noundef %95)
  br label %97

97:                                               ; preds = %91, %86
  br label %98

98:                                               ; preds = %97
  br label %99

99:                                               ; preds = %98
  br label %100

100:                                              ; preds = %99
  br label %101

101:                                              ; preds = %100
  %102 = load i32, ptr %16, align 4
  store i32 %102, ptr %7, align 4
  store i32 1, ptr %17, align 4
  br label %103

103:                                              ; preds = %101, %21
  call void @llvm.lifetime.end.p0(i64 4, ptr %16) #10
  call void @llvm.lifetime.end.p0(i64 8, ptr %15) #10
  call void @llvm.lifetime.end.p0(i64 8, ptr %14) #10
  %104 = load i32, ptr %7, align 4
  ret i32 %104
}