; Function Attrs: nounwind uwtable
define range(i32 -1, 1) i32 @evbuffer_add_reference_with_offset(ptr noundef %0, ptr noundef %1, i64 noundef %2, i64 noundef %3, ptr noundef %4, ptr noundef %5) local_unnamed_addr #1 {
  %7 = tail call ptr @event_mm_malloc_(i64 noundef 64) #16
  %8 = icmp eq ptr %7, null
  br i1 %8, label %evbuffer_chain_new.exit.thread, label %9

9:                                                ; preds = %6
  store i64 0, ptr %7, align 8
  %10 = getelementptr inbounds nuw i8, ptr %7, i64 8
  %11 = getelementptr inbounds nuw i8, ptr %7, i64 48
  %12 = getelementptr inbounds nuw i8, ptr %7, i64 40
  %13 = getelementptr inbounds nuw i8, ptr %7, i64 36
  store i32 1, ptr %13, align 4
  %14 = getelementptr inbounds nuw i8, ptr %7, i64 32
  store i32 12, ptr %14, align 8
  store ptr %1, ptr %12, align 8
  %15 = getelementptr inbounds nuw i8, ptr %7, i64 16
  store i64 %2, ptr %15, align 8
  %16 = add i64 %3, %2
  store i64 %16, ptr %10, align 8
  %17 = getelementptr inbounds nuw i8, ptr %7, i64 24
  store i64 %3, ptr %17, align 8
  store ptr %4, ptr %11, align 8
  %18 = getelementptr inbounds nuw i8, ptr %7, i64 56
  store ptr %5, ptr %18, align 8
  %19 = getelementptr inbounds nuw i8, ptr %0, i64 56
  %20 = load ptr, ptr %19, align 8
  %.not32 = icmp eq ptr %20, null
  br i1 %.not32, label %24, label %21

21:                                               ; preds = %9
  %22 = load ptr, ptr getelementptr inbounds nuw (i8, ptr @evthread_lock_fns_, i64 24), align 8
  %23 = tail call i32 %22(i32 noundef 0, ptr noundef nonnull %20) #16
  br label %24

24:                                               ; preds = %21, %9
  %25 = getelementptr inbounds nuw i8, ptr %0, i64 64
  %26 = load i8, ptr %25, align 8
  %27 = and i8 %26, 4
  %.not33 = icmp eq i8 %27, 0
  br i1 %.not33, label %29, label %28

28:                                               ; preds = %24
  tail call void @event_mm_free_(ptr noundef nonnull %7) #16
  br label %55

29:                                               ; preds = %24
  %30 = getelementptr inbounds nuw i8, ptr %0, i64 16
  %31 = load ptr, ptr %30, align 8
  %32 = load ptr, ptr %31, align 8
  %33 = icmp eq ptr %32, null
  br i1 %33, label %34, label %.lr.ph.i.i

34:                                               ; preds = %29
  %35 = getelementptr inbounds nuw i8, ptr %0, i64 8
  store ptr %7, ptr %35, align 8
  store ptr %7, ptr %0, align 8
  br label %evbuffer_chain_insert.exit

.lr.ph.i.i:                                       ; preds = %29, %.critedge2.i.i
  %.0.i.i = phi ptr [ %42, %.critedge2.i.i ], [ %32, %29 ]
  %.021.i.i = phi ptr [ %.0.i.i, %.critedge2.i.i ], [ %31, %29 ]
  %36 = getelementptr inbounds nuw i8, ptr %.0.i.i, i64 24
  %37 = load i64, ptr %36, align 8
  %.not13.i.i = icmp eq i64 %37, 0
  br i1 %.not13.i.i, label %38, label %.critedge2.i.i

38:                                               ; preds = %.lr.ph.i.i
  %39 = getelementptr inbounds nuw i8, ptr %.0.i.i, i64 32
  %40 = load i32, ptr %39, align 8
  %41 = and i32 %40, 48
  %.not14.i.i = icmp eq i32 %41, 0
  br i1 %.not14.i.i, label %.lr.ph.i.i.i, label %.critedge2.i.i

.critedge2.i.i:                                   ; preds = %38, %.lr.ph.i.i
  %42 = load ptr, ptr %.0.i.i, align 8
  %.not.i.i = icmp eq ptr %42, null
  br i1 %.not.i.i, label %evbuffer_free_trailing_empty_chains.exit.i, label %.lr.ph.i.i, !llvm.loop !10

.lr.ph.i.i.i:                                     ; preds = %38, %.lr.ph.i.i.i
  %.05.i.i.i = phi ptr [ %43, %.lr.ph.i.i.i ], [ %.0.i.i, %38 ]
  %43 = load ptr, ptr %.05.i.i.i, align 8
  tail call fastcc void @evbuffer_chain_free(ptr noundef nonnull %.05.i.i.i)
  %.not.i.i.i = icmp eq ptr %43, null
  br i1 %.not.i.i.i, label %evbuffer_free_all_chains.exit.i.i, label %.lr.ph.i.i.i, !llvm.loop !11

evbuffer_free_all_chains.exit.i.i:                ; preds = %.lr.ph.i.i.i
  store ptr null, ptr %.021.i.i, align 8
  br label %evbuffer_free_trailing_empty_chains.exit.i

evbuffer_free_trailing_empty_chains.exit.i:       ; preds = %.critedge2.i.i, %evbuffer_free_all_chains.exit.i.i
  %.018.i.i = phi ptr [ %.021.i.i, %evbuffer_free_all_chains.exit.i.i ], [ %.0.i.i, %.critedge2.i.i ]
  store ptr %7, ptr %.018.i.i, align 8
  %44 = load i64, ptr %17, align 8
  %.not.i = icmp eq i64 %44, 0
  br i1 %.not.i, label %46, label %45

45:                                               ; preds = %evbuffer_free_trailing_empty_chains.exit.i
  store ptr %.018.i.i, ptr %30, align 8
  br label %46

46:                                               ; preds = %45, %evbuffer_free_trailing_empty_chains.exit.i
  %47 = getelementptr inbounds nuw i8, ptr %0, i64 8
  store ptr %7, ptr %47, align 8
  br label %evbuffer_chain_insert.exit

evbuffer_chain_insert.exit:                       ; preds = %34, %46
  %48 = load i64, ptr %17, align 8
  %49 = getelementptr inbounds nuw i8, ptr %0, i64 24
  %50 = load i64, ptr %49, align 8
  %51 = add i64 %50, %48
  store i64 %51, ptr %49, align 8
  %52 = getelementptr inbounds nuw i8, ptr %0, i64 40
  %53 = load i64, ptr %52, align 8
  %54 = add i64 %53, %3
  store i64 %54, ptr %52, align 8
  tail call void @evbuffer_invoke_callbacks_(ptr noundef nonnull %0)
  br label %55

55:                                               ; preds = %evbuffer_chain_insert.exit, %28
  %.0 = phi i32 [ -1, %28 ], [ 0, %evbuffer_chain_insert.exit ]
  %56 = load ptr, ptr %19, align 8
  %.not34 = icmp eq ptr %56, null
  br i1 %.not34, label %evbuffer_chain_new.exit.thread, label %57

57:                                               ; preds = %55
  %58 = load ptr, ptr getelementptr inbounds nuw (i8, ptr @evthread_lock_fns_, i64 32), align 8
  %59 = tail call i32 %58(i32 noundef 0, ptr noundef nonnull %56) #16
  br label %evbuffer_chain_new.exit.thread

evbuffer_chain_new.exit.thread:                   ; preds = %6, %55, %57
  %.028 = phi i32 [ %.0, %57 ], [ %.0, %55 ], [ -1, %6 ]
  ret i32 %.028
}